(lp0
(S'cppflags'
p1
ccopy_reg
_reconstructor
p2
(cino.utils
SpaceList
p3
c__builtin__
list
p4
(lp5
S'-mmcu=atmega328p'
p6
aS'-DF_CPU=16000000L'
p7
aS'-DARDUINO=105'
p8
aS'-I/usr/share/arduino/hardware/arduino/cores/arduino'
p9
aS'-ffunction-sections'
p10
aS'-fdata-sections'
p11
aS'-g'
p12
aS'-Os'
p13
aS'-w'
p14
aS'-I/usr/share/arduino/hardware/arduino/variants/standard'
p15
aS'-I/usr/share/arduino/libraries/DHTlib'
p16
aS'-I/usr/share/arduino/libraries/EthernetReset'
p17
aS'-I/usr/share/arduino/libraries/Ethernet'
p18
aS'-I/usr/share/arduino/libraries/Ethernet/utility'
p19
aS'-I/usr/share/arduino/libraries/NetEEPROM'
p20
aS'-I/usr/share/arduino/libraries/SPI'
p21
aS'-I/usr/share/arduino/libraries/NewEEPROM'
p22
aS'-I/usr/share/arduino/hardware/arduino/cores/arduino'
p23
aS'-I/usr/share/arduino/hardware/arduino/cores/arduino/avr-libc'
p24
atp25
Rp26
tp27
a(S'version.txt'
p28
S'/usr/share/arduino/lib/version.txt'
p29
tp30
a(S'used_libs'
p31
(lp32
S'/usr/share/arduino/libraries/DHTlib'
p33
aS'/usr/share/arduino/libraries/EthernetReset'
p34
aS'/usr/share/arduino/libraries/Ethernet'
p35
aS'/usr/share/arduino/libraries/NetEEPROM'
p36
aS'/usr/share/arduino/libraries/SPI'
p37
aS'/usr/share/arduino/libraries/NewEEPROM'
p38
aS'/usr/share/arduino/hardware/arduino/cores/arduino'
p39
atp40
a(S'cc'
p41
S'/usr/share/arduino/hardware/tools/avr/bin/avr-gcc'
p42
tp43
a(S'make'
p44
S'/usr/bin/make'
p45
tp46
a(S'build_dir'
p47
S'.build/uno'
p48
tp49
a(S'arduino_core_dir'
p50
g39
tp51
a(S'boards.txt'
p52
(lp53
S'/usr/share/arduino/hardware/arduino/boards.txt'
p54
aS'/usr/share/arduino/hardware/ariadne/boards.txt'
p55
aS'/usr/share/arduino/hardware/ariadne/avr/boards.txt'
p56
atp57
a(S'cxxflags'
p58
g2
(g3
g4
(lp59
S'-fno-exceptions'
p60
atp61
Rp62
tp63
a(S'arduino_variants_dir'
p64
S'/usr/share/arduino/hardware/arduino/variants'
p65
tp66
a(S'deps'
p67
g2
(g3
g4
(lp68
S'.build/uno/src/dependencies.d'
p69
aS'.build/uno/arduino/dependencies.d'
p70
aS'.build/uno/NewEEPROM/dependencies.d'
p71
aS'.build/uno/SPI/dependencies.d'
p72
aS'.build/uno/Ethernet/dependencies.d'
p73
aS'.build/uno/DHTlib/dependencies.d'
p74
aS'.build/uno/NetEEPROM/dependencies.d'
p75
aS'.build/uno/EthernetReset/dependencies.d'
p76
atp77
Rp78
tp79
a(S'ar'
p80
S'/usr/share/arduino/hardware/tools/avr/bin/avr-ar'
p81
tp82
a(S'names'
p83
(dp84
S'cpp'
p85
S'%s.cpp'
p86
sS'obj'
p87
S'%s.o'
p88
sg67
S'%s.d'
p89
sS'lib'
p90
S'lib%s.a'
p91
stp92
a(S'cflags'
p93
g2
(g3
g4
(lp94
tp95
Rp96
tp97
a(S'ldflags'
p98
g2
(g3
g4
(lp99
g6
aS'-Wl,-Os'
p100
aS'-Wl,--gc-sections'
p101
atp102
Rp103
tp104
a(S'arduino_libraries_dir'
p105
S'/usr/share/arduino/libraries'
p106
tp107
a(S'arduino_lib_version'
p108
g2
(cino.environment
Version
p109
c__builtin__
tuple
p110
(I1
I0
I5
tp111
tp112
Rp113
tp114
a(S'objcopy'
p115
S'/usr/share/arduino/hardware/tools/avr/bin/avr-objcopy'
p116
tp117
a(S'board_models'
p118
cino.environment
BoardModels
p119
((lp120
(lp121
S'uno'
p122
a(dp123
S'build'
p124
(dp125
S'core'
p126
S'arduino'
p127
sS'mcu'
p128
S'atmega328p'
p129
sS'f_cpu'
p130
S'16000000L'
p131
sS'variant'
p132
S'standard'
p133
ssS'bootloader'
p134
(dp135
S'extended_fuses'
p136
S'0x05'
p137
sS'high_fuses'
p138
S'0xde'
p139
sS'low_fuses'
p140
S'0xff'
p141
sS'lock_bits'
p142
S'0x0F'
p143
sS'file'
p144
S'optiboot_atmega328.hex'
p145
sS'path'
p146
S'optiboot'
p147
sS'unlock_bits'
p148
S'0x3F'
p149
ssS'upload'
p150
(dp151
S'speed'
p152
S'115200'
p153
sS'maximum_size'
p154
S'32256'
p155
sS'protocol'
p156
S'arduino'
p157
ssS'name'
p158
S'Arduino Uno'
p159
sS'_coredir'
p160
S'/usr/share/arduino/hardware/arduino'
p161
saa(lp162
S'atmega328'
p163
a(dp164
S'build'
p165
(dp166
S'core'
p167
S'arduino'
p168
sS'mcu'
p169
S'atmega328p'
p170
sS'f_cpu'
p171
S'16000000L'
p172
sS'variant'
p173
S'standard'
p174
ssS'bootloader'
p175
(dp176
S'extended_fuses'
p177
S'0x05'
p178
sS'high_fuses'
p179
S'0xDA'
p180
sS'low_fuses'
p181
S'0xFF'
p182
sS'lock_bits'
p183
S'0x0F'
p184
sS'file'
p185
S'ATmegaBOOT_168_atmega328.hex'
p186
sS'path'
p187
S'atmega'
p188
sS'unlock_bits'
p189
S'0x3F'
p190
ssS'upload'
p191
(dp192
S'speed'
p193
S'57600'
p194
sS'maximum_size'
p195
S'30720'
p196
sS'protocol'
p197
S'arduino'
p198
ssS'name'
p199
S'Arduino Duemilanove w/ ATmega328'
p200
sg160
S'/usr/share/arduino/hardware/arduino'
p201
saa(lp202
S'diecimila'
p203
a(dp204
S'build'
p205
(dp206
S'core'
p207
S'arduino'
p208
sS'mcu'
p209
S'atmega168'
p210
sS'f_cpu'
p211
S'16000000L'
p212
sS'variant'
p213
S'standard'
p214
ssS'bootloader'
p215
(dp216
S'extended_fuses'
p217
S'0x00'
p218
sS'high_fuses'
p219
S'0xdd'
p220
sS'low_fuses'
p221
S'0xff'
p222
sS'lock_bits'
p223
S'0x0F'
p224
sS'file'
p225
S'ATmegaBOOT_168_diecimila.hex'
p226
sS'path'
p227
S'atmega'
p228
sS'unlock_bits'
p229
S'0x3F'
p230
ssS'upload'
p231
(dp232
S'speed'
p233
S'19200'
p234
sS'maximum_size'
p235
S'14336'
p236
sS'protocol'
p237
S'arduino'
p238
ssS'name'
p239
S'Arduino Diecimila or Duemilanove w/ ATmega168'
p240
sg160
S'/usr/share/arduino/hardware/arduino'
p241
saa(lp242
S'nano328'
p243
a(dp244
S'build'
p245
(dp246
S'core'
p247
S'arduino'
p248
sS'mcu'
p249
S'atmega328p'
p250
sS'f_cpu'
p251
S'16000000L'
p252
sS'variant'
p253
S'eightanaloginputs'
p254
ssS'bootloader'
p255
(dp256
S'extended_fuses'
p257
S'0x05'
p258
sS'high_fuses'
p259
S'0xDA'
p260
sS'low_fuses'
p261
S'0xFF'
p262
sS'lock_bits'
p263
S'0x0F'
p264
sS'file'
p265
S'ATmegaBOOT_168_atmega328.hex'
p266
sS'path'
p267
S'atmega'
p268
sS'unlock_bits'
p269
S'0x3F'
p270
ssS'upload'
p271
(dp272
S'speed'
p273
S'57600'
p274
sS'maximum_size'
p275
S'30720'
p276
sS'protocol'
p277
S'arduino'
p278
ssS'name'
p279
S'Arduino Nano w/ ATmega328'
p280
sg160
S'/usr/share/arduino/hardware/arduino'
p281
saa(lp282
S'nano'
p283
a(dp284
S'build'
p285
(dp286
S'core'
p287
S'arduino'
p288
sS'mcu'
p289
S'atmega168'
p290
sS'f_cpu'
p291
S'16000000L'
p292
sS'variant'
p293
S'eightanaloginputs'
p294
ssS'bootloader'
p295
(dp296
S'extended_fuses'
p297
S'0x00'
p298
sS'high_fuses'
p299
S'0xdd'
p300
sS'low_fuses'
p301
S'0xff'
p302
sS'lock_bits'
p303
S'0x0F'
p304
sS'file'
p305
S'ATmegaBOOT_168_diecimila.hex'
p306
sS'path'
p307
S'atmega'
p308
sS'unlock_bits'
p309
S'0x3F'
p310
ssS'upload'
p311
(dp312
S'speed'
p313
S'19200'
p314
sS'maximum_size'
p315
S'14336'
p316
sS'protocol'
p317
S'arduino'
p318
ssS'name'
p319
S'Arduino Nano w/ ATmega168'
p320
sg160
S'/usr/share/arduino/hardware/arduino'
p321
saa(lp322
S'mega2560'
p323
a(dp324
S'build'
p325
(dp326
S'core'
p327
S'arduino'
p328
sS'mcu'
p329
S'atmega2560'
p330
sS'f_cpu'
p331
S'16000000L'
p332
sS'variant'
p333
S'mega'
p334
ssS'bootloader'
p335
(dp336
S'extended_fuses'
p337
S'0xFD'
p338
sS'high_fuses'
p339
S'0xD8'
p340
sS'low_fuses'
p341
S'0xFF'
p342
sS'lock_bits'
p343
S'0x0F'
p344
sS'file'
p345
S'stk500boot_v2_mega2560.hex'
p346
sS'path'
p347
S'stk500v2'
p348
sS'unlock_bits'
p349
S'0x3F'
p350
ssS'upload'
p351
(dp352
S'speed'
p353
S'115200'
p354
sS'maximum_size'
p355
S'258048'
p356
sS'protocol'
p357
S'wiring'
p358
ssS'name'
p359
S'Arduino Mega 2560 or Mega ADK'
p360
sg160
S'/usr/share/arduino/hardware/arduino'
p361
saa(lp362
S'mega'
p363
a(dp364
S'build'
p365
(dp366
S'core'
p367
S'arduino'
p368
sS'mcu'
p369
S'atmega1280'
p370
sS'f_cpu'
p371
S'16000000L'
p372
sS'variant'
p373
S'mega'
p374
ssS'bootloader'
p375
(dp376
S'extended_fuses'
p377
S'0xF5'
p378
sS'high_fuses'
p379
S'0xDA'
p380
sS'low_fuses'
p381
S'0xFF'
p382
sS'lock_bits'
p383
S'0x0F'
p384
sS'file'
p385
S'ATmegaBOOT_168_atmega1280.hex'
p386
sS'path'
p387
S'atmega'
p388
sS'unlock_bits'
p389
S'0x3F'
p390
ssS'upload'
p391
(dp392
S'speed'
p393
S'57600'
p394
sS'maximum_size'
p395
S'126976'
p396
sS'protocol'
p397
S'arduino'
p398
ssS'name'
p399
S'Arduino Mega (ATmega1280)'
p400
sg160
S'/usr/share/arduino/hardware/arduino'
p401
saa(lp402
S'leonardo'
p403
a(dp404
S'build'
p405
(dp406
S'core'
p407
S'arduino'
p408
sS'f_cpu'
p409
S'16000000L'
p410
sS'vid'
p411
S'0x2341'
p412
sS'pid'
p413
S'0x8036'
p414
sS'variant'
p415
S'leonardo'
p416
sS'mcu'
p417
S'atmega32u4'
p418
ssS'bootloader'
p419
(dp420
S'extended_fuses'
p421
S'0xcb'
p422
sS'high_fuses'
p423
S'0xd8'
p424
sS'low_fuses'
p425
S'0xff'
p426
sS'lock_bits'
p427
S'0x2F'
p428
sS'file'
p429
S'Caterina-Leonardo.hex'
p430
sS'path'
p431
S'caterina'
p432
sS'unlock_bits'
p433
S'0x3F'
p434
ssS'upload'
p435
(dp436
S'speed'
p437
S'57600'
p438
sS'maximum_size'
p439
S'28672'
p440
sS'protocol'
p441
S'avr109'
p442
sS'disable_flushing'
p443
S'true'
p444
ssS'name'
p445
S'Arduino Leonardo'
p446
sg160
S'/usr/share/arduino/hardware/arduino'
p447
saa(lp448
S'esplora'
p449
a(dp450
S'build'
p451
(dp452
S'core'
p453
S'arduino'
p454
sS'f_cpu'
p455
S'16000000L'
p456
sS'vid'
p457
S'0x2341'
p458
sS'pid'
p459
S'0x803C'
p460
sS'variant'
p461
S'leonardo'
p462
sS'mcu'
p463
S'atmega32u4'
p464
ssS'bootloader'
p465
(dp466
S'extended_fuses'
p467
S'0xcb'
p468
sS'high_fuses'
p469
S'0xd8'
p470
sS'low_fuses'
p471
S'0xff'
p472
sS'lock_bits'
p473
S'0x2F'
p474
sS'file'
p475
S'Caterina-Esplora.hex'
p476
sS'path'
p477
S'caterina'
p478
sS'unlock_bits'
p479
S'0x3F'
p480
ssS'upload'
p481
(dp482
S'speed'
p483
S'57600'
p484
sS'maximum_size'
p485
S'28672'
p486
sS'protocol'
p487
S'avr109'
p488
sS'disable_flushing'
p489
S'true'
p490
ssS'name'
p491
S'Arduino Esplora'
p492
sg160
S'/usr/share/arduino/hardware/arduino'
p493
saa(lp494
S'micro'
p495
a(dp496
S'build'
p497
(dp498
S'core'
p499
S'arduino'
p500
sS'f_cpu'
p501
S'16000000L'
p502
sS'vid'
p503
S'0x2341'
p504
sS'pid'
p505
S'0x8037'
p506
sS'variant'
p507
S'micro'
p508
sS'mcu'
p509
S'atmega32u4'
p510
ssS'bootloader'
p511
(dp512
S'extended_fuses'
p513
S'0xcb'
p514
sS'high_fuses'
p515
S'0xd8'
p516
sS'low_fuses'
p517
S'0xff'
p518
sS'lock_bits'
p519
S'0x2F'
p520
sS'file'
p521
S'Caterina-Micro.hex'
p522
sS'path'
p523
S'caterina'
p524
sS'unlock_bits'
p525
S'0x3F'
p526
ssS'upload'
p527
(dp528
S'speed'
p529
S'57600'
p530
sS'maximum_size'
p531
S'28672'
p532
sS'protocol'
p533
S'avr109'
p534
sS'disable_flushing'
p535
S'true'
p536
ssS'name'
p537
S'Arduino Micro'
p538
sg160
S'/usr/share/arduino/hardware/arduino'
p539
saa(lp540
S'mini328'
p541
a(dp542
S'build'
p543
(dp544
S'core'
p545
S'arduino'
p546
sS'mcu'
p547
S'atmega328p'
p548
sS'f_cpu'
p549
S'16000000L'
p550
sS'variant'
p551
S'eightanaloginputs'
p552
ssS'bootloader'
p553
(dp554
S'extended_fuses'
p555
S'0x05'
p556
sS'high_fuses'
p557
S'0xd8'
p558
sS'low_fuses'
p559
S'0xff'
p560
sS'lock_bits'
p561
S'0x0F'
p562
sS'file'
p563
S'optiboot_atmega328-Mini.hex'
p564
sS'path'
p565
S'optiboot'
p566
sS'unlock_bits'
p567
S'0x3F'
p568
ssS'upload'
p569
(dp570
S'speed'
p571
S'115200'
p572
sS'maximum_size'
p573
S'28672'
p574
sS'protocol'
p575
S'arduino'
p576
ssS'name'
p577
S'Arduino Mini w/ ATmega328'
p578
sg160
S'/usr/share/arduino/hardware/arduino'
p579
saa(lp580
S'mini'
p581
a(dp582
S'build'
p583
(dp584
S'core'
p585
S'arduino'
p586
sS'mcu'
p587
S'atmega168'
p588
sS'f_cpu'
p589
S'16000000L'
p590
sS'variant'
p591
S'eightanaloginputs'
p592
ssS'bootloader'
p593
(dp594
S'extended_fuses'
p595
S'0x00'
p596
sS'high_fuses'
p597
S'0xdd'
p598
sS'low_fuses'
p599
S'0xff'
p600
sS'lock_bits'
p601
S'0x0F'
p602
sS'file'
p603
S'ATmegaBOOT_168_ng.hex'
p604
sS'path'
p605
S'atmega'
p606
sS'unlock_bits'
p607
S'0x3F'
p608
ssS'upload'
p609
(dp610
S'speed'
p611
S'19200'
p612
sS'maximum_size'
p613
S'14336'
p614
sS'protocol'
p615
S'arduino'
p616
ssS'name'
p617
S'Arduino Mini w/ ATmega168'
p618
sg160
S'/usr/share/arduino/hardware/arduino'
p619
saa(lp620
S'ethernet'
p621
a(dp622
S'build'
p623
(dp624
S'f_cpu'
p625
S'16000000L'
p626
sS'mcu'
p627
S'atmega328p'
p628
sS'variant'
p629
S'standard'
p630
sS'core'
p631
S'arduino'
p632
ssS'bootloader'
p633
(dp634
S'extended_fuses'
p635
S'0x05'
p636
sS'high_fuses'
p637
S'0xde'
p638
sS'low_fuses'
p639
S'0xff'
p640
sS'lock_bits'
p641
S'0x0F'
p642
sS'file'
p643
S'optiboot_atmega328.hex'
p644
sS'path'
p645
S'optiboot'
p646
sS'unlock_bits'
p647
S'0x3F'
p648
ssS'upload'
p649
(dp650
S'speed'
p651
S'115200'
p652
sS'maximum_size'
p653
S'32256'
p654
sS'protocol'
p655
S'arduino'
p656
ssS'name'
p657
S'Arduino Ethernet'
p658
sg160
S'/usr/share/arduino/hardware/arduino'
p659
saa(lp660
S'fio'
p661
a(dp662
S'build'
p663
(dp664
S'core'
p665
S'arduino'
p666
sS'mcu'
p667
S'atmega328p'
p668
sS'f_cpu'
p669
S'8000000L'
p670
sS'variant'
p671
S'eightanaloginputs'
p672
ssS'bootloader'
p673
(dp674
S'extended_fuses'
p675
S'0x05'
p676
sS'high_fuses'
p677
S'0xDA'
p678
sS'low_fuses'
p679
S'0xFF'
p680
sS'lock_bits'
p681
S'0x0F'
p682
sS'file'
p683
S'ATmegaBOOT_168_atmega328_pro_8MHz.hex'
p684
sS'path'
p685
S'arduino:atmega'
p686
sS'unlock_bits'
p687
S'0x3F'
p688
ssS'upload'
p689
(dp690
S'speed'
p691
S'57600'
p692
sS'maximum_size'
p693
S'30720'
p694
sS'protocol'
p695
S'arduino'
p696
ssS'name'
p697
S'Arduino Fio'
p698
sg160
S'/usr/share/arduino/hardware/arduino'
p699
saa(lp700
S'bt328'
p701
a(dp702
S'build'
p703
(dp704
S'core'
p705
S'arduino'
p706
sS'mcu'
p707
S'atmega328p'
p708
sS'f_cpu'
p709
S'16000000L'
p710
sS'variant'
p711
S'eightanaloginputs'
p712
ssS'bootloader'
p713
(dp714
S'extended_fuses'
p715
S'0x05'
p716
sS'high_fuses'
p717
S'0xd8'
p718
sS'low_fuses'
p719
S'0xff'
p720
sS'lock_bits'
p721
S'0x0F'
p722
sS'file'
p723
S'ATmegaBOOT_168_atmega328_bt.hex'
p724
sS'path'
p725
S'bt'
p726
sS'unlock_bits'
p727
S'0x3F'
p728
ssS'upload'
p729
(dp730
S'speed'
p731
S'19200'
p732
sS'maximum_size'
p733
S'28672'
p734
sS'protocol'
p735
S'arduino'
p736
sS'disable_flushing'
p737
S'true'
p738
ssS'name'
p739
S'Arduino BT w/ ATmega328'
p740
sg160
S'/usr/share/arduino/hardware/arduino'
p741
saa(lp742
S'bt'
p743
a(dp744
S'build'
p745
(dp746
S'core'
p747
S'arduino'
p748
sS'mcu'
p749
S'atmega168'
p750
sS'f_cpu'
p751
S'16000000L'
p752
sS'variant'
p753
S'eightanaloginputs'
p754
ssS'bootloader'
p755
(dp756
S'extended_fuses'
p757
S'0x00'
p758
sS'high_fuses'
p759
S'0xdd'
p760
sS'low_fuses'
p761
S'0xff'
p762
sS'lock_bits'
p763
S'0x0F'
p764
sS'file'
p765
S'ATmegaBOOT_168.hex'
p766
sS'path'
p767
S'bt'
p768
sS'unlock_bits'
p769
S'0x3F'
p770
ssS'upload'
p771
(dp772
S'speed'
p773
S'19200'
p774
sS'maximum_size'
p775
S'14336'
p776
sS'protocol'
p777
S'arduino'
p778
sS'disable_flushing'
p779
S'true'
p780
ssS'name'
p781
S'Arduino BT w/ ATmega168'
p782
sg160
S'/usr/share/arduino/hardware/arduino'
p783
saa(lp784
S'LilyPadUSB'
p785
a(dp786
S'build'
p787
(dp788
S'core'
p789
S'arduino'
p790
sS'f_cpu'
p791
S'8000000L'
p792
sS'vid'
p793
S'0x1B4F'
p794
sS'pid'
p795
S'0x9208'
p796
sS'variant'
p797
S'leonardo'
p798
sS'mcu'
p799
S'atmega32u4'
p800
ssS'bootloader'
p801
(dp802
S'extended_fuses'
p803
S'0xce'
p804
sS'high_fuses'
p805
S'0xd8'
p806
sS'low_fuses'
p807
S'0xff'
p808
sS'lock_bits'
p809
S'0x2F'
p810
sS'file'
p811
S'Caterina-LilyPadUSB.hex'
p812
sS'path'
p813
S'caterina-LilyPadUSB'
p814
sS'unlock_bits'
p815
S'0x3F'
p816
ssS'upload'
p817
(dp818
S'speed'
p819
S'57600'
p820
sS'maximum_size'
p821
S'28672'
p822
sS'protocol'
p823
S'avr109'
p824
sS'disable_flushing'
p825
S'true'
p826
ssS'name'
p827
S'LilyPad Arduino USB'
p828
sg160
S'/usr/share/arduino/hardware/arduino'
p829
saa(lp830
S'lilypad328'
p831
a(dp832
S'build'
p833
(dp834
S'core'
p835
S'arduino'
p836
sS'mcu'
p837
S'atmega328p'
p838
sS'f_cpu'
p839
S'8000000L'
p840
sS'variant'
p841
S'standard'
p842
ssS'bootloader'
p843
(dp844
S'extended_fuses'
p845
S'0x05'
p846
sS'high_fuses'
p847
S'0xDA'
p848
sS'low_fuses'
p849
S'0xFF'
p850
sS'lock_bits'
p851
S'0x0F'
p852
sS'file'
p853
S'ATmegaBOOT_168_atmega328_pro_8MHz.hex'
p854
sS'path'
p855
S'atmega'
p856
sS'unlock_bits'
p857
S'0x3F'
p858
ssS'upload'
p859
(dp860
S'speed'
p861
S'57600'
p862
sS'maximum_size'
p863
S'30720'
p864
sS'protocol'
p865
S'arduino'
p866
ssS'name'
p867
S'LilyPad Arduino w/ ATmega328'
p868
sg160
S'/usr/share/arduino/hardware/arduino'
p869
saa(lp870
S'lilypad'
p871
a(dp872
S'build'
p873
(dp874
S'core'
p875
S'arduino'
p876
sS'mcu'
p877
S'atmega168'
p878
sS'f_cpu'
p879
S'8000000L'
p880
sS'variant'
p881
S'standard'
p882
ssS'bootloader'
p883
(dp884
S'extended_fuses'
p885
S'0x00'
p886
sS'high_fuses'
p887
S'0xdd'
p888
sS'low_fuses'
p889
S'0xe2'
p890
sS'lock_bits'
p891
S'0x0F'
p892
sS'file'
p893
S'LilyPadBOOT_168.hex'
p894
sS'path'
p895
S'lilypad'
p896
sS'unlock_bits'
p897
S'0x3F'
p898
ssS'upload'
p899
(dp900
S'speed'
p901
S'19200'
p902
sS'maximum_size'
p903
S'14336'
p904
sS'protocol'
p905
S'arduino'
p906
ssS'name'
p907
S'LilyPad Arduino w/ ATmega168'
p908
sg160
S'/usr/share/arduino/hardware/arduino'
p909
saa(lp910
S'pro5v328'
p911
a(dp912
S'build'
p913
(dp914
S'core'
p915
S'arduino'
p916
sS'mcu'
p917
S'atmega328p'
p918
sS'f_cpu'
p919
S'16000000L'
p920
sS'variant'
p921
S'standard'
p922
ssS'bootloader'
p923
(dp924
S'extended_fuses'
p925
S'0x05'
p926
sS'high_fuses'
p927
S'0xDA'
p928
sS'low_fuses'
p929
S'0xFF'
p930
sS'lock_bits'
p931
S'0x0F'
p932
sS'file'
p933
S'ATmegaBOOT_168_atmega328.hex'
p934
sS'path'
p935
S'atmega'
p936
sS'unlock_bits'
p937
S'0x3F'
p938
ssS'upload'
p939
(dp940
S'speed'
p941
S'57600'
p942
sS'maximum_size'
p943
S'30720'
p944
sS'protocol'
p945
S'arduino'
p946
ssS'name'
p947
S'Arduino Pro or Pro Mini (5V, 16 MHz) w/ ATmega328'
p948
sg160
S'/usr/share/arduino/hardware/arduino'
p949
saa(lp950
S'pro5v'
p951
a(dp952
S'build'
p953
(dp954
S'core'
p955
S'arduino'
p956
sS'mcu'
p957
S'atmega168'
p958
sS'f_cpu'
p959
S'16000000L'
p960
sS'variant'
p961
S'standard'
p962
ssS'bootloader'
p963
(dp964
S'extended_fuses'
p965
S'0x00'
p966
sS'high_fuses'
p967
S'0xdd'
p968
sS'low_fuses'
p969
S'0xff'
p970
sS'lock_bits'
p971
S'0x0F'
p972
sS'file'
p973
S'ATmegaBOOT_168_diecimila.hex'
p974
sS'path'
p975
S'atmega'
p976
sS'unlock_bits'
p977
S'0x3F'
p978
ssS'upload'
p979
(dp980
S'speed'
p981
S'19200'
p982
sS'maximum_size'
p983
S'14336'
p984
sS'protocol'
p985
S'arduino'
p986
ssS'name'
p987
S'Arduino Pro or Pro Mini (5V, 16 MHz) w/ ATmega168'
p988
sg160
S'/usr/share/arduino/hardware/arduino'
p989
saa(lp990
S'pro328'
p991
a(dp992
S'build'
p993
(dp994
S'core'
p995
S'arduino'
p996
sS'mcu'
p997
S'atmega328p'
p998
sS'f_cpu'
p999
S'8000000L'
p1000
sS'variant'
p1001
S'standard'
p1002
ssS'bootloader'
p1003
(dp1004
S'extended_fuses'
p1005
S'0x05'
p1006
sS'high_fuses'
p1007
S'0xDA'
p1008
sS'low_fuses'
p1009
S'0xFF'
p1010
sS'lock_bits'
p1011
S'0x0F'
p1012
sS'file'
p1013
S'ATmegaBOOT_168_atmega328_pro_8MHz.hex'
p1014
sS'path'
p1015
S'atmega'
p1016
sS'unlock_bits'
p1017
S'0x3F'
p1018
ssS'upload'
p1019
(dp1020
S'speed'
p1021
S'57600'
p1022
sS'maximum_size'
p1023
S'30720'
p1024
sS'protocol'
p1025
S'arduino'
p1026
ssS'name'
p1027
S'Arduino Pro or Pro Mini (3.3V, 8 MHz) w/ ATmega328'
p1028
sg160
S'/usr/share/arduino/hardware/arduino'
p1029
saa(lp1030
S'pro'
p1031
a(dp1032
S'build'
p1033
(dp1034
S'core'
p1035
S'arduino'
p1036
sS'mcu'
p1037
S'atmega168'
p1038
sS'f_cpu'
p1039
S'8000000L'
p1040
sS'variant'
p1041
S'standard'
p1042
ssS'bootloader'
p1043
(dp1044
S'extended_fuses'
p1045
S'0x00'
p1046
sS'high_fuses'
p1047
S'0xdd'
p1048
sS'low_fuses'
p1049
S'0xc6'
p1050
sS'lock_bits'
p1051
S'0x0F'
p1052
sS'file'
p1053
S'ATmegaBOOT_168_pro_8MHz.hex'
p1054
sS'path'
p1055
S'atmega'
p1056
sS'unlock_bits'
p1057
S'0x3F'
p1058
ssS'upload'
p1059
(dp1060
S'speed'
p1061
S'19200'
p1062
sS'maximum_size'
p1063
S'14336'
p1064
sS'protocol'
p1065
S'arduino'
p1066
ssS'name'
p1067
S'Arduino Pro or Pro Mini (3.3V, 8 MHz) w/ ATmega168'
p1068
sg160
S'/usr/share/arduino/hardware/arduino'
p1069
saa(lp1070
S'atmega168'
p1071
a(dp1072
S'build'
p1073
(dp1074
S'core'
p1075
S'arduino'
p1076
sS'mcu'
p1077
S'atmega168'
p1078
sS'f_cpu'
p1079
S'16000000L'
p1080
sS'variant'
p1081
S'standard'
p1082
ssS'bootloader'
p1083
(dp1084
S'extended_fuses'
p1085
S'0x00'
p1086
sS'high_fuses'
p1087
S'0xdd'
p1088
sS'low_fuses'
p1089
S'0xff'
p1090
sS'lock_bits'
p1091
S'0x0F'
p1092
sS'file'
p1093
S'ATmegaBOOT_168_ng.hex'
p1094
sS'path'
p1095
S'atmega'
p1096
sS'unlock_bits'
p1097
S'0x3F'
p1098
ssS'upload'
p1099
(dp1100
S'speed'
p1101
S'19200'
p1102
sS'maximum_size'
p1103
S'14336'
p1104
sS'protocol'
p1105
S'arduino'
p1106
ssS'name'
p1107
S'Arduino NG or older w/ ATmega168'
p1108
sg160
S'/usr/share/arduino/hardware/arduino'
p1109
saa(lp1110
S'atmega8'
p1111
a(dp1112
S'build'
p1113
(dp1114
S'core'
p1115
S'arduino'
p1116
sS'mcu'
p1117
S'atmega8'
p1118
sS'f_cpu'
p1119
S'16000000L'
p1120
sS'variant'
p1121
S'standard'
p1122
ssS'bootloader'
p1123
(dp1124
S'high_fuses'
p1125
S'0xca'
p1126
sS'low_fuses'
p1127
S'0xdf'
p1128
sS'lock_bits'
p1129
S'0x0F'
p1130
sS'file'
p1131
S'ATmegaBOOT-prod-firmware-2009-11-07.hex'
p1132
sS'path'
p1133
S'atmega8'
p1134
sS'unlock_bits'
p1135
S'0x3F'
p1136
ssS'upload'
p1137
(dp1138
S'speed'
p1139
S'19200'
p1140
sS'maximum_size'
p1141
S'7168'
p1142
sS'protocol'
p1143
S'arduino'
p1144
ssS'name'
p1145
S'Arduino NG or older w/ ATmega8'
p1146
sg160
S'/usr/share/arduino/hardware/arduino'
p1147
saa(lp1148
S'robotControl'
p1149
a(dp1150
S'build'
p1151
(dp1152
S'core'
p1153
S'robot'
p1154
sS'f_cpu'
p1155
S'16000000L'
p1156
sS'vid'
p1157
S'0x2341'
p1158
sS'pid'
p1159
S'0x8038'
p1160
sS'variant'
p1161
S'robot_control'
p1162
sS'mcu'
p1163
S'atmega32u4'
p1164
ssS'bootloader'
p1165
(dp1166
S'extended_fuses'
p1167
S'0xcb'
p1168
sS'high_fuses'
p1169
S'0xd8'
p1170
sS'low_fuses'
p1171
S'0xff'
p1172
sS'lock_bits'
p1173
S'0x2F'
p1174
sS'file'
p1175
S'Caterina-Robot-Control.hex'
p1176
sS'path'
p1177
S'caterina-Arduino_Robot'
p1178
sS'unlock_bits'
p1179
S'0x3F'
p1180
ssS'upload'
p1181
(dp1182
S'speed'
p1183
S'57600'
p1184
sS'maximum_size'
p1185
S'28672'
p1186
sS'protocol'
p1187
S'avr109'
p1188
sS'disable_flushing'
p1189
S'true'
p1190
ssS'name'
p1191
S'Arduino Robot Control'
p1192
sg160
S'/usr/share/arduino/hardware/arduino'
p1193
saa(lp1194
S'robotMotor'
p1195
a(dp1196
S'build'
p1197
(dp1198
S'core'
p1199
S'robot'
p1200
sS'f_cpu'
p1201
S'16000000L'
p1202
sS'vid'
p1203
S'0x2341'
p1204
sS'pid'
p1205
S'0x8039'
p1206
sS'variant'
p1207
S'robot_motor'
p1208
sS'mcu'
p1209
S'atmega32u4'
p1210
ssS'bootloader'
p1211
(dp1212
S'extended_fuses'
p1213
S'0xcb'
p1214
sS'high_fuses'
p1215
S'0xd8'
p1216
sS'low_fuses'
p1217
S'0xff'
p1218
sS'lock_bits'
p1219
S'0x2F'
p1220
sS'file'
p1221
S'Caterina-Robot-Motor.hex'
p1222
sS'path'
p1223
S'caterina-Arduino_Robot'
p1224
sS'unlock_bits'
p1225
S'0x3F'
p1226
ssS'upload'
p1227
(dp1228
S'speed'
p1229
S'57600'
p1230
sS'maximum_size'
p1231
S'28672'
p1232
sS'protocol'
p1233
S'avr109'
p1234
sS'disable_flushing'
p1235
S'true'
p1236
ssS'name'
p1237
S'Arduino Robot Motor'
p1238
sg160
S'/usr/share/arduino/hardware/arduino'
p1239
saa(lp1240
S'ariadne328p_16mhz_blink_shield_standard'
p1241
a(dp1242
S'build'
p1243
(dp1244
S'core'
p1245
S'arduino:arduino'
p1246
sS'mcu'
p1247
S'atmega328p'
p1248
sS'f_cpu'
p1249
S'16000000L'
p1250
sS'variant'
p1251
S'arduino:standard'
p1252
ssS'bootloader'
p1253
(dp1254
S'extended_fuses'
p1255
S'0x05'
p1256
sS'high_fuses'
p1257
S'0xD8'
p1258
sS'low_fuses'
p1259
S'0xFF'
p1260
sS'lock_bits'
p1261
S'0x0F'
p1262
sS'file'
p1263
S'ariadne_atmega328_16mhz_blink_shield.hex'
p1264
sS'path'
p1265
S'ariadne'
p1266
sS'unlock_bits'
p1267
S'0x3F'
p1268
ssS'upload'
p1269
(dp1270
S'speed'
p1271
S'115200'
p1272
sS'maximum_size'
p1273
S'28672'
p1274
sS'protocol'
p1275
S'arduino'
p1276
ssS'name'
p1277
S'ATmega328P 16MHz, 6 Analog Inputs, Ariadne Bootloader'
p1278
sg160
S'/usr/share/arduino/hardware/ariadne'
p1279
saa(lp1280
S'ariadne328p_16mhz_blink_shield_eightanaloginputs'
p1281
a(dp1282
S'build'
p1283
(dp1284
S'core'
p1285
S'arduino:arduino'
p1286
sS'mcu'
p1287
S'atmega328p'
p1288
sS'f_cpu'
p1289
S'16000000L'
p1290
sS'variant'
p1291
S'arduino:eightanaloginputs'
p1292
ssS'bootloader'
p1293
(dp1294
S'extended_fuses'
p1295
S'0x05'
p1296
sS'high_fuses'
p1297
S'0xD8'
p1298
sS'low_fuses'
p1299
S'0xFF'
p1300
sS'lock_bits'
p1301
S'0x0F'
p1302
sS'file'
p1303
S'ariadne_atmega328_16mhz_blink_shield.hex'
p1304
sS'path'
p1305
S'ariadne'
p1306
sS'unlock_bits'
p1307
S'0x3F'
p1308
ssS'upload'
p1309
(dp1310
S'speed'
p1311
S'115200'
p1312
sS'maximum_size'
p1313
S'28672'
p1314
sS'protocol'
p1315
S'arduino'
p1316
ssS'name'
p1317
S'ATmega328P 16MHz, 8 Analog Inputs, Ariadne Bootloader'
p1318
sg160
S'/usr/share/arduino/hardware/ariadne'
p1319
saa(lp1320
S'ariadneethernet_blink'
p1321
a(dp1322
S'build'
p1323
(dp1324
S'core'
p1325
S'arduino:arduino'
p1326
sS'mcu'
p1327
S'atmega328p'
p1328
sS'f_cpu'
p1329
S'16000000L'
p1330
sS'variant'
p1331
S'arduino:standard'
p1332
ssS'bootloader'
p1333
(dp1334
S'extended_fuses'
p1335
S'0x05'
p1336
sS'high_fuses'
p1337
S'0xD8'
p1338
sS'low_fuses'
p1339
S'0xFF'
p1340
sS'lock_bits'
p1341
S'0x0F'
p1342
sS'file'
p1343
S'ariadne_atmega328_16mhz_blink_arduinoethernet.hex'
p1344
sS'path'
p1345
S'ariadne'
p1346
sS'unlock_bits'
p1347
S'0x3F'
p1348
ssS'upload'
p1349
(dp1350
S'speed'
p1351
S'115200'
p1352
sS'maximum_size'
p1353
S'28672'
p1354
sS'protocol'
p1355
S'arduino'
p1356
ssS'name'
p1357
S'Arduino Ethernet, Ariadne Bootloader'
p1358
sg160
S'/usr/share/arduino/hardware/ariadne'
p1359
saa(lp1360
S'ariadne2560_blink_shield'
p1361
a(dp1362
S'build'
p1363
(dp1364
S'core'
p1365
S'arduino:arduino'
p1366
sS'mcu'
p1367
S'atmega2560'
p1368
sS'f_cpu'
p1369
S'16000000L'
p1370
sS'variant'
p1371
S'arduino:mega'
p1372
ssS'bootloader'
p1373
(dp1374
S'extended_fuses'
p1375
S'0xFD'
p1376
sS'high_fuses'
p1377
S'0xDA'
p1378
sS'low_fuses'
p1379
S'0xFF'
p1380
sS'lock_bits'
p1381
S'0x0F'
p1382
sS'file'
p1383
S'ariadne_atmega2560_16mhz_blink_shield.hex'
p1384
sS'path'
p1385
S'ariadne'
p1386
sS'unlock_bits'
p1387
S'0x3F'
p1388
ssS'upload'
p1389
(dp1390
S'speed'
p1391
S'115200'
p1392
sS'maximum_size'
p1393
S'258048'
p1394
sS'protocol'
p1395
S'stk500v2'
p1396
ssS'name'
p1397
S'Arduino Mega 2560, Ariadne Bootloader'
p1398
sg160
S'/usr/share/arduino/hardware/ariadne'
p1399
saa(lp1400
S'ariadne1284p_16mhz_fullswing_blink_shield_avrdevelopers'
p1401
a(dp1402
S'build'
p1403
(dp1404
S'core'
p1405
S'arduino:arduino'
p1406
sS'mcu'
p1407
S'atmega1284p'
p1408
sS'f_cpu'
p1409
S'16000000L'
p1410
sS'variant'
p1411
S'avr_developers'
p1412
ssS'bootloader'
p1413
(dp1414
S'extended_fuses'
p1415
S'0xFD'
p1416
sS'high_fuses'
p1417
S'0xDA'
p1418
sS'low_fuses'
p1419
S'0xF7'
p1420
sS'lock_bits'
p1421
S'0x0F'
p1422
sS'file'
p1423
S'ariadne_atmega1284p_16mhz_blink_shield_avrdevelopersstandard.hex'
p1424
sS'path'
p1425
S'ariadne'
p1426
sS'unlock_bits'
p1427
S'0x3F'
p1428
ssS'upload'
p1429
(dp1430
S'speed'
p1431
S'115200'
p1432
sS'maximum_size'
p1433
S'126976'
p1434
sS'protocol'
p1435
S'arduino'
p1436
ssS'name'
p1437
S'ATmega1284P 16MHz avr-developers.com pinout, Ariadne Bootloader'
p1438
sg160
S'/usr/share/arduino/hardware/ariadne'
p1439
saa(lp1440
S'menu'
p1441
a(dp1442
S'model'
p1443
S'Model'
p1444
sS'clock'
p1445
S'Clock'
p1446
sS'configuration'
p1447
S'Board Configuration'
p1448
sg160
S'/usr/share/arduino/hardware/ariadne/avr'
p1449
saa(lp1450
S'ariadne328p'
p1451
a(dp1452
S'name'
p1453
S'ATmega328P(Uno/Mini/Duemilanove/etc.)'
p1454
sS'menu'
p1455
(dp1456
S'model'
p1457
(dp1458
S'mini'
p1459
(dp1460
S'build'
p1461
(dp1462
S'variant'
p1463
S'arduino:eightanaloginputs'
p1464
sS'board'
p1465
S'AVR_MINI'
p1466
ssS'_'
p1467
S'Mini'
p1468
ssS'nano'
p1469
(dp1470
S'build'
p1471
(dp1472
S'variant'
p1473
S'arduino:eightanaloginputs'
p1474
sS'board'
p1475
S'AVR_NANO'
p1476
ssg1467
S'Nano'
p1477
ssS'other8'
p1478
(dp1479
S'build'
p1480
(dp1481
S'variant'
p1482
S'arduino:eightanaloginputs'
p1483
ssg1467
S'Other(8 analog inputs)'
p1484
ssS'pro'
p1485
(dp1486
S'build'
p1487
(dp1488
S'variant'
p1489
S'arduino:eightanaloginputs'
p1490
sS'board'
p1491
S'AVR_PRO'
p1492
ssg1467
S'Pro or Pro Mini'
p1493
ssS'bt'
p1494
(dp1495
S'build'
p1496
(dp1497
S'variant'
p1498
S'arduino:eightanaloginputs'
p1499
sS'board'
p1500
S'AVR_BT'
p1501
ssg1467
S'BT'
p1502
ssS'other6'
p1503
(dp1504
S'build'
p1505
(dp1506
S'variant'
p1507
S'arduino:standard'
p1508
ssg1467
S'Other(6 analog inputs)'
p1509
ssS'duemilanove'
p1510
(dp1511
S'build'
p1512
(dp1513
S'variant'
p1514
S'arduino:standard'
p1515
sS'board'
p1516
S'AVR_DUEMILANOVE'
p1517
ssg1467
S'Duemilanove or Diecimila'
p1518
ssS'uno'
p1519
(dp1520
S'build'
p1521
(dp1522
S'variant'
p1523
S'arduino:standard'
p1524
sS'board'
p1525
S'AVR_UNO'
p1526
ssg1467
S'Uno'
p1527
sssS'configuration'
p1528
(dp1529
S'blink_notshield'
p1530
(dp1531
S'bootloader'
p1532
(dp1533
S'file'
p1534
S'ariadne/ariadne_atmega328_16mhz_blink_notshield.hex'
p1535
ssg1467
S'No Ethernet Shield, Blink'
p1536
ssS'noblink_shield'
p1537
(dp1538
S'bootloader'
p1539
(dp1540
S'file'
p1541
S'ariadne/ariadne_atmega328_16mhz_noblink_shield.hex'
p1542
ssg1467
S'Ethernet Shield, No Blink'
p1543
ssS'blink_shield'
p1544
(dp1545
S'bootloader'
p1546
(dp1547
S'file'
p1548
S'ariadne/ariadne_atmega328_16mhz_blink_shield.hex'
p1549
ssg1467
S'Ethernet Shield, Blink'
p1550
ssS'noblink_notshield'
p1551
(dp1552
S'bootloader'
p1553
(dp1554
S'file'
p1555
S'ariadne/ariadne_atmega328_16mhz_noblink_notshield.hex'
p1556
ssg1467
S'No Ethernet Shield, No Blink'
p1557
sssS'clock'
p1558
(dp1559
S'low_power'
p1560
(dp1561
S'bootloader'
p1562
(dp1563
S'low_fuses'
p1564
S'0xFF'
p1565
ssS'upload'
p1566
(dp1567
S'speed'
p1568
S'115200'
p1569
ssg1467
S'16MHz Low Power'
p1570
sS'build'
p1571
(dp1572
S'f_cpu'
p1573
S'16000000L'
p1574
sssS'full_swing'
p1575
(dp1576
S'bootloader'
p1577
(dp1578
S'low_fuses'
p1579
S'0xF7'
p1580
ssS'upload'
p1581
(dp1582
S'speed'
p1583
S'115200'
p1584
ssg1467
S'16MHz Full Swing'
p1585
sS'build'
p1586
(dp1587
S'f_cpu'
p1588
S'16000000L'
p1589
sssS'8mhz'
p1590
(dp1591
S'bootloader'
p1592
(dp1593
S'low_fuses'
p1594
S'0xE2'
p1595
ssS'upload'
p1596
(dp1597
S'speed'
p1598
S'57600'
p1599
ssg1467
S'8MHz Internal'
p1600
sS'build'
p1601
(dp1602
S'f_cpu'
p1603
S'8000000L'
p1604
sssssS'upload'
p1605
(dp1606
S'tool'
p1607
S'arduino:avrdude'
p1608
sS'protocol'
p1609
S'arduino'
p1610
sS'maximum_size'
p1611
S'28672'
p1612
sS'maximum_data_size'
p1613
S'2048'
p1614
ssS'build'
p1615
(dp1616
S'core'
p1617
S'arduino:arduino'
p1618
sS'mcu'
p1619
S'atmega328p'
p1620
sS'board'
p1621
S'AVR_ARIADNE328P'
p1622
ssg160
S'/usr/share/arduino/hardware/ariadne/avr'
p1623
sS'bootloader'
p1624
(dp1625
S'lock_bits'
p1626
S'0x0F'
p1627
sS'tool'
p1628
S'arduino:avrdude'
p1629
sS'unlock_bits'
p1630
S'0x3F'
p1631
sS'high_fuses'
p1632
S'0xD8'
p1633
sS'extended_fuses'
p1634
S'0x05'
p1635
ssaa(lp1636
S'ariadneethernet'
p1637
a(dp1638
S'name'
p1639
S'Arduino Ethernet'
p1640
sS'menu'
p1641
(dp1642
S'configuration'
p1643
(dp1644
S'noblink'
p1645
(dp1646
S'bootloader'
p1647
(dp1648
S'file'
p1649
S'ariadne/ariadne_atmega328_16mhz_noblink_arduinoethernet.hex'
p1650
ssg1467
S'No Blink'
p1651
ssS'blink'
p1652
(dp1653
S'bootloader'
p1654
(dp1655
S'file'
p1656
S'ariadne/ariadne_atmega328_16mhz_blink_arduinoethernet.hex'
p1657
ssg1467
S'Blink'
p1658
ssssS'upload'
p1659
(dp1660
S'speed'
p1661
S'115200'
p1662
sS'tool'
p1663
S'arduino:avrdude'
p1664
sS'protocol'
p1665
S'arduino'
p1666
sS'maximum_size'
p1667
S'28672'
p1668
sS'maximum_data_size'
p1669
S'2048'
p1670
ssS'build'
p1671
(dp1672
S'core'
p1673
S'arduino:arduino'
p1674
sS'mcu'
p1675
S'atmega328p'
p1676
sS'f_cpu'
p1677
S'16000000L'
p1678
sS'board'
p1679
S'AVR_ETHERNET'
p1680
sS'variant'
p1681
S'arduino:standard'
p1682
ssg160
S'/usr/share/arduino/hardware/ariadne/avr'
p1683
sS'bootloader'
p1684
(dp1685
S'extended_fuses'
p1686
S'0x05'
p1687
sS'high_fuses'
p1688
S'0xD8'
p1689
sS'low_fuses'
p1690
S'0xFF'
p1691
sS'lock_bits'
p1692
S'0x0F'
p1693
sS'tool'
p1694
S'arduino:avrdude'
p1695
sS'unlock_bits'
p1696
S'0x3F'
p1697
ssaa(lp1698
S'ariadne2560'
p1699
a(dp1700
S'name'
p1701
S'Arduino Mega 2560'
p1702
sS'menu'
p1703
(dp1704
S'configuration'
p1705
(dp1706
S'blink_notshield'
p1707
(dp1708
S'bootloader'
p1709
(dp1710
S'file'
p1711
S'ariadne/ariadne_atmega2560_16mhz_blink_notshield.hex'
p1712
ssg1467
S'No Ethernet Shield, Blink'
p1713
ssS'noblink_shield'
p1714
(dp1715
S'bootloader'
p1716
(dp1717
S'file'
p1718
S'ariadne/ariadne_atmega2560_16mhz_noblink_shield.hex'
p1719
ssg1467
S'Ethernet Shield, No Blink'
p1720
ssS'blink_shield'
p1721
(dp1722
S'bootloader'
p1723
(dp1724
S'file'
p1725
S'ariadne/ariadne_atmega2560_16mhz_blink_shield.hex'
p1726
ssg1467
S'Ethernet Shield, Blink'
p1727
ssS'noblink_notshield'
p1728
(dp1729
S'bootloader'
p1730
(dp1731
S'file'
p1732
S'ariadne/ariadne_atmega2560_16mhz_noblink_notshield.hex'
p1733
ssg1467
S'No Ethernet Shield, No Blink'
p1734
ssssS'upload'
p1735
(dp1736
S'speed'
p1737
S'115200'
p1738
sS'tool'
p1739
S'arduino:avrdude'
p1740
sS'protocol'
p1741
S'wiring'
p1742
sS'maximum_size'
p1743
S'258048'
p1744
sS'maximum_data_size'
p1745
S'8192'
p1746
ssS'build'
p1747
(dp1748
S'core'
p1749
S'arduino:arduino'
p1750
sS'mcu'
p1751
S'atmega2560'
p1752
sS'f_cpu'
p1753
S'16000000L'
p1754
sS'board'
p1755
S'AVR_MEGA2560'
p1756
sS'variant'
p1757
S'arduino:mega'
p1758
ssg160
S'/usr/share/arduino/hardware/ariadne/avr'
p1759
sS'bootloader'
p1760
(dp1761
S'extended_fuses'
p1762
S'0xFD'
p1763
sS'high_fuses'
p1764
S'0xDA'
p1765
sS'low_fuses'
p1766
S'0xFF'
p1767
sS'lock_bits'
p1768
S'0x0F'
p1769
sS'tool'
p1770
S'arduino:avrdude'
p1771
sS'unlock_bits'
p1772
S'0x3F'
p1773
ssaa(lp1774
S'ariadne1284p_16mhz_avrdevelopersstandard'
p1775
a(dp1776
S'name'
p1777
S'ATmega1284P 16MHz avr-developers.com Pinout'
p1778
sS'menu'
p1779
(dp1780
S'configuration'
p1781
(dp1782
S'blink_notshield'
p1783
(dp1784
S'bootloader'
p1785
(dp1786
S'file'
p1787
S'ariadne/ariadne_atmega1284p_16mhz_blink_notshield_avrdevelopersstandard.hex'
p1788
ssg1467
S'No Ethernet Shield, Blink'
p1789
ssS'noblink_shield'
p1790
(dp1791
S'bootloader'
p1792
(dp1793
S'file'
p1794
S'ariadne/ariadne_atmega1284p_16mhz_noblink_shield_avrdevelopersstandard.hex'
p1795
ssg1467
S'Ethernet Shield, No Blink'
p1796
ssS'blink_shield'
p1797
(dp1798
S'bootloader'
p1799
(dp1800
S'file'
p1801
S'ariadne/ariadne_atmega1284p_16mhz_blink_shield_avrdevelopersstandard.hex'
p1802
ssg1467
S'Ethernet Shield, Blink'
p1803
ssS'noblink_notshield'
p1804
(dp1805
S'bootloader'
p1806
(dp1807
S'file'
p1808
S'ariadne/ariadne_atmega1284p_16mhz_noblink_notshield_avrdevelopersstandard.hex'
p1809
ssg1467
S'No Ethernet Shield, No Blink'
p1810
sssS'clock'
p1811
(dp1812
S'low_power'
p1813
(dp1814
S'bootloader'
p1815
(dp1816
S'low_fuses'
p1817
S'0xFF'
p1818
ssg1467
S'Low Power'
p1819
ssS'full_swing'
p1820
(dp1821
S'bootloader'
p1822
(dp1823
S'low_fuses'
p1824
S'0xF7'
p1825
ssg1467
S'Full Swing'
p1826
ssssS'upload'
p1827
(dp1828
S'speed'
p1829
S'115200'
p1830
sS'tool'
p1831
S'arduino:avrdude'
p1832
sS'protocol'
p1833
S'arduino'
p1834
sS'maximum_size'
p1835
S'126976'
p1836
sS'maximum_data_size'
p1837
S'16384'
p1838
ssS'build'
p1839
(dp1840
S'core'
p1841
S'arduino:arduino'
p1842
sS'mcu'
p1843
S'atmega1284p'
p1844
sS'f_cpu'
p1845
S'16000000L'
p1846
sS'board'
p1847
S'1284P_AVR_DEVELOPERS'
p1848
sS'variant'
p1849
S'avr_developers'
p1850
ssg160
S'/usr/share/arduino/hardware/ariadne/avr'
p1851
sS'bootloader'
p1852
(dp1853
S'lock_bits'
p1854
S'0x0F'
p1855
sS'tool'
p1856
S'arduino:avrdude'
p1857
sS'unlock_bits'
p1858
S'0x3F'
p1859
sS'high_fuses'
p1860
S'0xDA'
p1861
sS'extended_fuses'
p1862
S'0xFD'
p1863
ssaatp1864
Rp1865
(dp1866
S'default'
p1867
S'uno'
p1868
sbtp1869
a(S'cxx'
p1870
S'/usr/share/arduino/hardware/tools/avr/bin/avr-g++'
p1871
tp1872
a.